; ModuleID = 'source-C-CXX/35/1526.c'
source_filename = "source-C-CXX/35/1526.c"
target datalayout = "e-m:e-p270:32:32-p271:32:32-p272:64:64-i64:64-f80:128-n8:16:32:64-S128"
target triple = "x86_64-pc-linux-gnu"

@.str = private unnamed_addr constant [5 x i8] c"%s%s\00", align 1
@.str.1 = private unnamed_addr constant [3 x i8] c"NO\00", align 1
@.str.2 = private unnamed_addr constant [4 x i8] c"YES\00", align 1

; Function Attrs: nofree nounwind sspstrong uwtable
define dso_local i32 @main() local_unnamed_addr #0 {
  %1 = alloca [1000 x i8], align 16
  %2 = alloca [1000 x i8], align 16
  %3 = alloca [200 x i32], align 16
  %4 = getelementptr inbounds [1000 x i8], [1000 x i8]* %1, i64 0, i64 0
  call void @llvm.lifetime.start.p0i8(i64 1000, i8* nonnull %4) #5
  %5 = getelementptr inbounds [1000 x i8], [1000 x i8]* %2, i64 0, i64 0
  call void @llvm.lifetime.start.p0i8(i64 1000, i8* nonnull %5) #5
  %6 = call i32 (i8*, ...) @__isoc99_scanf(i8* getelementptr inbounds ([5 x i8], [5 x i8]* @.str, i64 0, i64 0), i8* nonnull %4, i8* nonnull %5)
  %7 = bitcast [200 x i32]* %3 to i8*
  call void @llvm.lifetime.start.p0i8(i64 800, i8* nonnull %7) #5
  call void @llvm.memset.p0i8.i64(i8* noundef nonnull align 16 dereferenceable(800) %7, i8 0, i64 800, i1 false)
  %8 = call i64 @strlen(i8* noundef nonnull %4) #6
  %9 = trunc i64 %8 to i32
  %10 = call i64 @strlen(i8* noundef nonnull %5) #6
  %11 = trunc i64 %10 to i32
  %12 = icmp sgt i32 %9, 0
  br i1 %12, label %13, label %70

13:                                               ; preds = %0
  %14 = and i64 %8, 4294967295
  %15 = add nsw i64 %14, -1
  %16 = and i64 %8, 3
  %17 = icmp ult i64 %15, 3
  br i1 %17, label %53, label %18

18:                                               ; preds = %13
  %19 = sub nsw i64 %14, %16
  br label %20

20:                                               ; preds = %20, %18
  %21 = phi i64 [ 0, %18 ], [ %50, %20 ]
  %22 = phi i64 [ %19, %18 ], [ %51, %20 ]
  %23 = getelementptr inbounds [1000 x i8], [1000 x i8]* %1, i64 0, i64 %21
  %24 = load i8, i8* %23, align 4, !tbaa !5
  %25 = sext i8 %24 to i64
  %26 = getelementptr inbounds [200 x i32], [200 x i32]* %3, i64 0, i64 %25
  %27 = load i32, i32* %26, align 4, !tbaa !8
  %28 = add nsw i32 %27, 1
  store i32 %28, i32* %26, align 4, !tbaa !8
  %29 = or i64 %21, 1
  %30 = getelementptr inbounds [1000 x i8], [1000 x i8]* %1, i64 0, i64 %29
  %31 = load i8, i8* %30, align 1, !tbaa !5
  %32 = sext i8 %31 to i64
  %33 = getelementptr inbounds [200 x i32], [200 x i32]* %3, i64 0, i64 %32
  %34 = load i32, i32* %33, align 4, !tbaa !8
  %35 = add nsw i32 %34, 1
  store i32 %35, i32* %33, align 4, !tbaa !8
  %36 = or i64 %21, 2
  %37 = getelementptr inbounds [1000 x i8], [1000 x i8]* %1, i64 0, i64 %36
  %38 = load i8, i8* %37, align 2, !tbaa !5
  %39 = sext i8 %38 to i64
  %40 = getelementptr inbounds [200 x i32], [200 x i32]* %3, i64 0, i64 %39
  %41 = load i32, i32* %40, align 4, !tbaa !8
  %42 = add nsw i32 %41, 1
  store i32 %42, i32* %40, align 4, !tbaa !8
  %43 = or i64 %21, 3
  %44 = getelementptr inbounds [1000 x i8], [1000 x i8]* %1, i64 0, i64 %43
  %45 = load i8, i8* %44, align 1, !tbaa !5
  %46 = sext i8 %45 to i64
  %47 = getelementptr inbounds [200 x i32], [200 x i32]* %3, i64 0, i64 %46
  %48 = load i32, i32* %47, align 4, !tbaa !8
  %49 = add nsw i32 %48, 1
  store i32 %49, i32* %47, align 4, !tbaa !8
  %50 = add nuw nsw i64 %21, 4
  %51 = add i64 %22, -4
  %52 = icmp eq i64 %51, 0
  br i1 %52, label %53, label %20, !llvm.loop !10

53:                                               ; preds = %20, %13
  %54 = phi i64 [ 0, %13 ], [ %50, %20 ]
  %55 = icmp eq i64 %16, 0
  br i1 %55, label %68, label %56

56:                                               ; preds = %53, %56
  %57 = phi i64 [ %65, %56 ], [ %54, %53 ]
  %58 = phi i64 [ %66, %56 ], [ %16, %53 ]
  %59 = getelementptr inbounds [1000 x i8], [1000 x i8]* %1, i64 0, i64 %57
  %60 = load i8, i8* %59, align 1, !tbaa !5
  %61 = sext i8 %60 to i64
  %62 = getelementptr inbounds [200 x i32], [200 x i32]* %3, i64 0, i64 %61
  %63 = load i32, i32* %62, align 4, !tbaa !8
  %64 = add nsw i32 %63, 1
  store i32 %64, i32* %62, align 4, !tbaa !8
  %65 = add nuw nsw i64 %57, 1
  %66 = add i64 %58, -1
  %67 = icmp eq i64 %66, 0
  br i1 %67, label %68, label %56, !llvm.loop !12

68:                                               ; preds = %56, %53
  %69 = icmp eq i32 %9, %11
  br i1 %69, label %72, label %88

70:                                               ; preds = %0
  %71 = icmp eq i32 %9, %11
  br i1 %71, label %87, label %88

72:                                               ; preds = %68
  br i1 %12, label %73, label %87

73:                                               ; preds = %72
  %74 = and i64 %8, 4294967295
  br label %77

75:                                               ; preds = %77
  %76 = icmp eq i64 %86, %74
  br i1 %76, label %87, label %77, !llvm.loop !14

77:                                               ; preds = %73, %75
  %78 = phi i64 [ 0, %73 ], [ %86, %75 ]
  %79 = getelementptr inbounds [1000 x i8], [1000 x i8]* %2, i64 0, i64 %78
  %80 = load i8, i8* %79, align 1, !tbaa !5
  %81 = sext i8 %80 to i64
  %82 = getelementptr inbounds [200 x i32], [200 x i32]* %3, i64 0, i64 %81
  %83 = load i32, i32* %82, align 4, !tbaa !8
  %84 = add nsw i32 %83, -1
  store i32 %84, i32* %82, align 4, !tbaa !8
  %85 = icmp slt i32 %83, 1
  %86 = add nuw nsw i64 %78, 1
  br i1 %85, label %88, label %75

87:                                               ; preds = %75, %70, %72
  br label %88

88:                                               ; preds = %77, %68, %70, %87
  %89 = phi i8* [ getelementptr inbounds ([4 x i8], [4 x i8]* @.str.2, i64 0, i64 0), %87 ], [ getelementptr inbounds ([3 x i8], [3 x i8]* @.str.1, i64 0, i64 0), %70 ], [ getelementptr inbounds ([3 x i8], [3 x i8]* @.str.1, i64 0, i64 0), %68 ], [ getelementptr inbounds ([3 x i8], [3 x i8]* @.str.1, i64 0, i64 0), %77 ]
  %90 = call i32 (i8*, ...) @printf(i8* nonnull dereferenceable(1) %89)
  call void @llvm.lifetime.end.p0i8(i64 800, i8* nonnull %7) #5
  call void @llvm.lifetime.end.p0i8(i64 1000, i8* nonnull %5) #5
  call void @llvm.lifetime.end.p0i8(i64 1000, i8* nonnull %4) #5
  ret i32 0
}

; Function Attrs: argmemonly mustprogress nofree nosync nounwind willreturn
declare void @llvm.lifetime.start.p0i8(i64 immarg, i8* nocapture) #1

; Function Attrs: nofree nounwind
declare noundef i32 @__isoc99_scanf(i8* nocapture noundef readonly, ...) local_unnamed_addr #2

; Function Attrs: argmemonly mustprogress nofree nounwind willreturn writeonly
declare void @llvm.memset.p0i8.i64(i8* nocapture writeonly, i8, i64, i1 immarg) #3

; Function Attrs: argmemonly mustprogress nofree nounwind readonly willreturn
declare i64 @strlen(i8* nocapture) local_unnamed_addr #4

; Function Attrs: nofree nounwind
declare noundef i32 @printf(i8* nocapture noundef readonly, ...) local_unnamed_addr #2

; Function Attrs: argmemonly mustprogress nofree nosync nounwind willreturn
declare void @llvm.lifetime.end.p0i8(i64 immarg, i8* nocapture) #1


!llvm.module.flags = !{!0, !1, !2, !3}
!llvm.ident = !{!4}

!0 = !{i32 1, !"wchar_size", i32 4}
!1 = !{i32 7, !"PIC Level", i32 2}
!2 = !{i32 7, !"PIE Level", i32 2}
!3 = !{i32 7, !"uwtable", i32 1}
!4 = !{!"clang version 13.0.0"}
!5 = !{!6, !6, i64 0}
!6 = !{!"omnipotent char", !7, i64 0}
!7 = !{!"Simple C/C++ TBAA"}
!8 = !{!9, !9, i64 0}
!9 = !{!"int", !6, i64 0}
!10 = distinct !{!10, !11}
!11 = !{!"llvm.loop.mustprogress"}
!12 = distinct !{!12, !13}
!13 = !{!"llvm.loop.unroll.disable"}
!14 = distinct !{!14, !11}
